target datalayout = "e-m:e-p270:32:32-p271:32:32-p272:64:64-i64:64-i128:128-f80:128-n8:16:32:64-S128"
target triple = "x86_64-pc-linux-gnu"

%struct.phpdbg_btree = type { i64, i64, i8, ptr }
%struct.phpdbg_btree_position = type { ptr, i64, i64 }
%struct.phpdbg_btree_result = type { i64, ptr }

; Function Attrs: nounwind uwtable
define hidden ptr @phpdbg_btree_find_closest(ptr noundef %0, i64 noundef %1) #0 {
  %3 = alloca ptr, align 8
  %4 = alloca ptr, align 8
  %5 = alloca i64, align 8
  %6 = alloca ptr, align 8
  %7 = alloca i32, align 4
  %8 = alloca i32, align 4
  store ptr %0, ptr %4, align 8
  store i64 %1, ptr %5, align 8
  %9 = load ptr, ptr %4, align 8
  %10 = getelementptr inbounds %struct.phpdbg_btree, ptr %9, i32 0, i32 3
  %11 = load ptr, ptr %10, align 8
  store ptr %11, ptr %6, align 8
  %12 = load ptr, ptr %4, align 8
  %13 = getelementptr inbounds %struct.phpdbg_btree, ptr %12, i32 0, i32 1
  %14 = load i64, ptr %13, align 8
  %15 = sub i64 %14, 1
  %16 = trunc i64 %15 to i32
  store i32 %16, ptr %7, align 4
  store i32 -1, ptr %8, align 4
  %17 = load ptr, ptr %6, align 8
  %18 = icmp eq ptr %17, null
  br i1 %18, label %19, label %20

19:                                               ; preds = %2
  store ptr null, ptr %3, align 8
  br label %143

20:                                               ; preds = %2
  br label %21

21:                                               ; preds = %137, %20
  %22 = load i64, ptr %5, align 8
  %23 = load i32, ptr %7, align 4
  %24 = zext i32 %23 to i64
  %25 = lshr i64 %22, %24
  %26 = urem i64 %25, 2
  %27 = icmp eq i64 %26, 0
  br i1 %27, label %28, label %98

28:                                               ; preds = %21
  %29 = load ptr, ptr %6, align 8
  %30 = getelementptr inbounds [2 x ptr], ptr %29, i64 0, i64 0
  %31 = load ptr, ptr %30, align 8
  %32 = icmp ne ptr %31, null
  br i1 %32, label %33, label %37

33:                                               ; preds = %28
  %34 = load ptr, ptr %6, align 8
  %35 = getelementptr inbounds [2 x ptr], ptr %34, i64 0, i64 0
  %36 = load ptr, ptr %35, align 8
  store ptr %36, ptr %6, align 8
  br label %97

37:                                               ; preds = %28
  %38 = load i32, ptr %8, align 4
  %39 = icmp eq i32 %38, -1
  br i1 %39, label %40, label %41

40:                                               ; preds = %37
  store ptr null, ptr %3, align 8
  br label %143

41:                                               ; preds = %37
  %42 = load ptr, ptr %4, align 8
  %43 = getelementptr inbounds %struct.phpdbg_btree, ptr %42, i32 0, i32 3
  %44 = load ptr, ptr %43, align 8
  store ptr %44, ptr %6, align 8
  %45 = load ptr, ptr %4, align 8
  %46 = getelementptr inbounds %struct.phpdbg_btree, ptr %45, i32 0, i32 1
  %47 = load i64, ptr %46, align 8
  %48 = sub i64 %47, 1
  %49 = trunc i64 %48 to i32
  store i32 %49, ptr %7, align 4
  br label %50

50:                                               ; preds = %71, %41
  %51 = load ptr, ptr %6, align 8
  %52 = load i64, ptr %5, align 8
  %53 = load i32, ptr %7, align 4
  %54 = zext i32 %53 to i64
  %55 = lshr i64 %52, %54
  %56 = urem i64 %55, 2
  %57 = icmp eq i64 %56, 1
  br i1 %57, label %58, label %63

58:                                               ; preds = %50
  %59 = load ptr, ptr %6, align 8
  %60 = getelementptr inbounds [2 x ptr], ptr %59, i64 0, i64 1
  %61 = load ptr, ptr %60, align 8
  %62 = icmp ne ptr %61, null
  br label %63

63:                                               ; preds = %58, %50
  %64 = phi i1 [ false, %50 ], [ %62, %58 ]
  %65 = xor i1 %64, true
  %66 = xor i1 %65, true
  %67 = zext i1 %66 to i32
  %68 = sext i32 %67 to i64
  %69 = getelementptr inbounds [2 x ptr], ptr %51, i64 0, i64 %68
  %70 = load ptr, ptr %69, align 8
  store ptr %70, ptr %6, align 8
  br label %71

71:                                               ; preds = %63
  %72 = load i32, ptr %7, align 4
  %73 = add nsw i32 %72, -1
  store i32 %73, ptr %7, align 4
  %74 = load i32, ptr %8, align 4
  %75 = icmp sgt i32 %73, %74
  br i1 %75, label %50, label %76

76:                                               ; preds = %71
  %77 = load ptr, ptr %6, align 8
  %78 = getelementptr inbounds [2 x ptr], ptr %77, i64 0, i64 0
  %79 = load ptr, ptr %78, align 8
  store ptr %79, ptr %6, align 8
  br label %80

80:                                               ; preds = %84, %76
  %81 = load i32, ptr %7, align 4
  %82 = add nsw i32 %81, -1
  store i32 %82, ptr %7, align 4
  %83 = icmp ne i32 %81, 0
  br i1 %83, label %84, label %96

84:                                               ; preds = %80
  %85 = load ptr, ptr %6, align 8
  %86 = load ptr, ptr %6, align 8
  %87 = getelementptr inbounds [2 x ptr], ptr %86, i64 0, i64 1
  %88 = load ptr, ptr %87, align 8
  %89 = icmp ne ptr %88, null
  %90 = xor i1 %89, true
  %91 = xor i1 %90, true
  %92 = zext i1 %91 to i32
  %93 = sext i32 %92 to i64
  %94 = getelementptr inbounds [2 x ptr], ptr %85, i64 0, i64 %93
  %95 = load ptr, ptr %94, align 8
  store ptr %95, ptr %6, align 8
  br label %80

96:                                               ; preds = %80
  br label %141

97:                                               ; preds = %33
  br label %136

98:                                               ; preds = %21
  %99 = load ptr, ptr %6, align 8
  %100 = getelementptr inbounds [2 x ptr], ptr %99, i64 0, i64 1
  %101 = load ptr, ptr %100, align 8
  %102 = icmp ne ptr %101, null
  br i1 %102, label %103, label %114

103:                                              ; preds = %98
  %104 = load ptr, ptr %6, align 8
  %105 = getelementptr inbounds [2 x ptr], ptr %104, i64 0, i64 0
  %106 = load ptr, ptr %105, align 8
  %107 = icmp ne ptr %106, null
  br i1 %107, label %108, label %110

108:                                              ; preds = %103
  %109 = load i32, ptr %7, align 4
  store i32 %109, ptr %8, align 4
  br label %110

110:                                              ; preds = %108, %103
  %111 = load ptr, ptr %6, align 8
  %112 = getelementptr inbounds [2 x ptr], ptr %111, i64 0, i64 1
  %113 = load ptr, ptr %112, align 8
  store ptr %113, ptr %6, align 8
  br label %135

114:                                              ; preds = %98
  %115 = load ptr, ptr %6, align 8
  %116 = getelementptr inbounds [2 x ptr], ptr %115, i64 0, i64 0
  %117 = load ptr, ptr %116, align 8
  store ptr %117, ptr %6, align 8
  br label %118

118:                                              ; preds = %122, %114
  %119 = load i32, ptr %7, align 4
  %120 = add nsw i32 %119, -1
  store i32 %120, ptr %7, align 4
  %121 = icmp ne i32 %119, 0
  br i1 %121, label %122, label %134

122:                                              ; preds = %118
  %123 = load ptr, ptr %6, align 8
  %124 = load ptr, ptr %6, align 8
  %125 = getelementptr inbounds [2 x ptr], ptr %124, i64 0, i64 1
  %126 = load ptr, ptr %125, align 8
  %127 = icmp ne ptr %126, null
  %128 = xor i1 %127, true
  %129 = xor i1 %128, true
  %130 = zext i1 %129 to i32
  %131 = sext i32 %130 to i64
  %132 = getelementptr inbounds [2 x ptr], ptr %123, i64 0, i64 %131
  %133 = load ptr, ptr %132, align 8
  store ptr %133, ptr %6, align 8
  br label %118

134:                                              ; preds = %118
  br label %141

135:                                              ; preds = %110
  br label %136

136:                                              ; preds = %135, %97
  br label %137

137:                                              ; preds = %136
  %138 = load i32, ptr %7, align 4
  %139 = add nsw i32 %138, -1
  store i32 %139, ptr %7, align 4
  %140 = icmp ne i32 %138, 0
  br i1 %140, label %21, label %141

141:                                              ; preds = %137, %134, %96
  %142 = load ptr, ptr %6, align 8
  store ptr %142, ptr %3, align 8
  br label %143

143:                                              ; preds = %141, %40, %19
  %144 = load ptr, ptr %3, align 8
  ret ptr %144
}

; Function Attrs: nounwind uwtable
define hidden ptr @phpdbg_btree_next(ptr noundef %0) #0 {
  %2 = alloca ptr, align 8
  %3 = alloca ptr, align 8
  %4 = alloca ptr, align 8
  store ptr %0, ptr %3, align 8
  %5 = load ptr, ptr %3, align 8
  %6 = getelementptr inbounds %struct.phpdbg_btree_position, ptr %5, i32 0, i32 0
  %7 = load ptr, ptr %6, align 8
  %8 = load ptr, ptr %3, align 8
  %9 = getelementptr inbounds %struct.phpdbg_btree_position, ptr %8, i32 0, i32 1
  %10 = load i64, ptr %9, align 8
  %11 = call ptr @phpdbg_btree_find_closest(ptr noundef %7, i64 noundef %10)
  store ptr %11, ptr %4, align 8
  %12 = load ptr, ptr %4, align 8
  %13 = icmp eq ptr %12, null
  br i1 %13, label %22, label %14

14:                                               ; preds = %1
  %15 = load ptr, ptr %4, align 8
  %16 = getelementptr inbounds %struct.phpdbg_btree_result, ptr %15, i32 0, i32 0
  %17 = load i64, ptr %16, align 8
  %18 = load ptr, ptr %3, align 8
  %19 = getelementptr inbounds %struct.phpdbg_btree_position, ptr %18, i32 0, i32 2
  %20 = load i64, ptr %19, align 8
  %21 = icmp ult i64 %17, %20
  br i1 %21, label %22, label %23

22:                                               ; preds = %14, %1
  store ptr null, ptr %2, align 8
  br label %31

23:                                               ; preds = %14
  %24 = load ptr, ptr %4, align 8
  %25 = getelementptr inbounds %struct.phpdbg_btree_result, ptr %24, i32 0, i32 0
  %26 = load i64, ptr %25, align 8
  %27 = sub i64 %26, 1
  %28 = load ptr, ptr %3, align 8
  %29 = getelementptr inbounds %struct.phpdbg_btree_position, ptr %28, i32 0, i32 1
  store i64 %27, ptr %29, align 8
  %30 = load ptr, ptr %4, align 8
  store ptr %30, ptr %2, align 8
  br label %31

31:                                               ; preds = %23, %22
  %32 = load ptr, ptr %2, align 8
  ret ptr %32
}