; Function Attrs: nofree norecurse nosync nounwind memory(read, argmem: readwrite, inaccessiblemem: none) uwtable
define hidden noundef ptr @phpdbg_btree_next(ptr nocapture noundef %0) local_unnamed_addr #2 {
  %2 = load ptr, ptr %0, align 8
  %3 = getelementptr inbounds i8, ptr %0, i64 8
  %4 = load i64, ptr %3, align 8
  %5 = getelementptr inbounds i8, ptr %2, i64 24
  %6 = load ptr, ptr %5, align 8
  %7 = getelementptr inbounds i8, ptr %2, i64 8
  %8 = load i64, ptr %7, align 8
  %9 = trunc i64 %8 to i32
  %10 = icmp eq ptr %6, null
  br i1 %10, label %phpdbg_btree_find_closest.exit.thread, label %.preheader50.i

.preheader50.i:                                   ; preds = %1, %53
  %.033.i = phi ptr [ %.4.i, %53 ], [ %6, %1 ]
  %.030.in.i = phi i32 [ %.030.i, %53 ], [ %9, %1 ]
  %.0.i = phi i32 [ %.2.i, %53 ], [ -1, %1 ]
  %.030.i = add i32 %.030.in.i, -1
  %11 = zext nneg i32 %.030.i to i64
  %12 = shl nuw i64 1, %11
  %13 = and i64 %12, %4
  %14 = icmp eq i64 %13, 0
  br i1 %14, label %15, label %43

15:                                               ; preds = %.preheader50.i
  %16 = load ptr, ptr %.033.i, align 8
  %.not44.i = icmp eq ptr %16, null
  br i1 %.not44.i, label %17, label %53

17:                                               ; preds = %15
  %18 = icmp eq i32 %.0.i, -1
  br i1 %18, label %phpdbg_btree_find_closest.exit.thread, label %19

19:                                               ; preds = %17
  %20 = add i32 %9, -1
  br label %21

21:                                               ; preds = %29, %19
  %.134.i = phi ptr [ %6, %19 ], [ %33, %29 ]
  %.131.i = phi i32 [ %20, %19 ], [ %34, %29 ]
  %22 = zext nneg i32 %.131.i to i64
  %23 = shl nuw i64 1, %22
  %24 = and i64 %23, %4
  %.not45.i = icmp eq i64 %24, 0
  br i1 %.not45.i, label %29, label %25

25:                                               ; preds = %21
  %26 = getelementptr inbounds i8, ptr %.134.i, i64 8
  %27 = load ptr, ptr %26, align 8
  %28 = icmp ne ptr %27, null
  br label %29

29:                                               ; preds = %25, %21
  %30 = phi i1 [ false, %21 ], [ %28, %25 ]
  %31 = zext i1 %30 to i64
  %32 = getelementptr inbounds [2 x ptr], ptr %.134.i, i64 0, i64 %31
  %33 = load ptr, ptr %32, align 8
  %34 = add nsw i32 %.131.i, -1
  %35 = icmp sgt i32 %34, %.0.i
  br i1 %35, label %21, label %.preheader.i

.preheader.i:                                     ; preds = %29
  %36 = add i32 %9, -2
  %smin.i = tail call i32 @llvm.smin.i32(i32 %.0.i, i32 %36)
  %.23563.i = load ptr, ptr %33, align 8
  %.not4664.i = icmp eq i32 %smin.i, 0
  br i1 %.not4664.i, label %phpdbg_btree_find_closest.exit, label %.lr.ph67.i

.lr.ph67.i:                                       ; preds = %.preheader.i, %.lr.ph67.i
  %.23566.i = phi ptr [ %.235.i, %.lr.ph67.i ], [ %.23563.i, %.preheader.i ]
  %.23265.i = phi i32 [ %37, %.lr.ph67.i ], [ %smin.i, %.preheader.i ]
  %37 = add nsw i32 %.23265.i, -1
  %38 = getelementptr inbounds i8, ptr %.23566.i, i64 8
  %39 = load ptr, ptr %38, align 8
  %40 = icmp ne ptr %39, null
  %41 = zext i1 %40 to i64
  %42 = getelementptr inbounds [2 x ptr], ptr %.23566.i, i64 0, i64 %41
  %.235.i = load ptr, ptr %42, align 8
  %.not46.i = icmp eq i32 %37, 0
  br i1 %.not46.i, label %phpdbg_btree_find_closest.exit, label %.lr.ph67.i

43:                                               ; preds = %.preheader50.i
  %44 = getelementptr inbounds i8, ptr %.033.i, i64 8
  %45 = load ptr, ptr %44, align 8
  %.not.i = icmp eq ptr %45, null
  %.33659.i = load ptr, ptr %.033.i, align 8
  br i1 %.not.i, label %.preheader48.i, label %46

.preheader48.i:                                   ; preds = %43
  %.not4260.i = icmp eq i32 %.030.i, 0
  br i1 %.not4260.i, label %phpdbg_btree_find_closest.exit, label %.lr.ph.i

46:                                               ; preds = %43
  %.not43.i = icmp eq ptr %.33659.i, null
  %spec.select.i = select i1 %.not43.i, i32 %.0.i, i32 %.030.i
  br label %53

.lr.ph.i:                                         ; preds = %.preheader48.i, %.lr.ph.i
  %.33662.i = phi ptr [ %.336.i, %.lr.ph.i ], [ %.33659.i, %.preheader48.i ]
  %.361.i = phi i32 [ %47, %.lr.ph.i ], [ %.030.i, %.preheader48.i ]
  %47 = add nsw i32 %.361.i, -1
  %48 = getelementptr inbounds i8, ptr %.33662.i, i64 8
  %49 = load ptr, ptr %48, align 8
  %50 = icmp ne ptr %49, null
  %51 = zext i1 %50 to i64
  %52 = getelementptr inbounds [2 x ptr], ptr %.33662.i, i64 0, i64 %51
  %.336.i = load ptr, ptr %52, align 8
  %.not42.i = icmp eq i32 %47, 0
  br i1 %.not42.i, label %phpdbg_btree_find_closest.exit, label %.lr.ph.i

53:                                               ; preds = %46, %15
  %.4.i = phi ptr [ %45, %46 ], [ %16, %15 ]
  %.2.i = phi i32 [ %spec.select.i, %46 ], [ %.0.i, %15 ]
  %.not47.i = icmp eq i32 %.030.i, 0
  br i1 %.not47.i, label %phpdbg_btree_find_closest.exit.thread12, label %.preheader50.i

phpdbg_btree_find_closest.exit:                   ; preds = %.lr.ph.i, %.lr.ph67.i, %.preheader.i, %.preheader48.i
  %.037.i = phi ptr [ %.23563.i, %.preheader.i ], [ %.33659.i, %.preheader48.i ], [ %.235.i, %.lr.ph67.i ], [ %.336.i, %.lr.ph.i ]
  %54 = icmp eq ptr %.037.i, null
  br i1 %54, label %phpdbg_btree_find_closest.exit.thread, label %phpdbg_btree_find_closest.exit.thread12

phpdbg_btree_find_closest.exit.thread12:          ; preds = %53, %phpdbg_btree_find_closest.exit
  %.037.i14 = phi ptr [ %.037.i, %phpdbg_btree_find_closest.exit ], [ %.4.i, %53 ]
  %55 = load i64, ptr %.037.i14, align 8
  %56 = getelementptr inbounds i8, ptr %0, i64 16
  %57 = load i64, ptr %56, align 8
  %58 = icmp ult i64 %55, %57
  br i1 %58, label %phpdbg_btree_find_closest.exit.thread, label %59

59:                                               ; preds = %phpdbg_btree_find_closest.exit.thread12
  %60 = add i64 %55, -1
  store i64 %60, ptr %3, align 8
  br label %phpdbg_btree_find_closest.exit.thread

phpdbg_btree_find_closest.exit.thread:            ; preds = %17, %1, %phpdbg_btree_find_closest.exit, %phpdbg_btree_find_closest.exit.thread12, %59
  %.0 = phi ptr [ %.037.i14, %59 ], [ null, %phpdbg_btree_find_closest.exit.thread12 ], [ null, %phpdbg_btree_find_closest.exit ], [ null, %1 ], [ null, %17 ]
  ret ptr %.0
}